MPASM 5.77                     PROYECTO2.ASM   10-24-2020  11:38:39         PAGE  1


LOC  OBJECT CODE     LINE SOURCE TEXT
  VALUE

                      00001 ; PIC16F887 Configuration Bit Settings
                      00002 
                      00003 #include "p16f887.inc"
                      00001         LIST
                      00002 
                      00003 ;==========================================================================
                      00004 ; Build date : Nov 22 2017
                      00005 ;  MPASM PIC16F887 processor include
                      00006 ; 
                      00007 ;  (c) Copyright 1999-2017 Microchip Technology, All rights reserved
                      00008 ;==========================================================================
                      00009 
                      00810         LIST
                      00004 
                      00005 ; CONFIG1
                      00006 ; __config 0xE0D4
2007   20D4           00007  __CONFIG _CONFIG1, _FOSC_INTRC_NOCLKOUT & _WDTE_OFF & _PWRTE_OFF & _MCLRE_OFF & _CP_OFF & _CPD_OFF & _B
                            OREN_OFF & _IESO_OFF & _FCMEN_OFF & _LVP_OFF
                      00008 ; CONFIG2
                      00009 ; __config 0xFFFF
2008   3FFF           00010  __CONFIG _CONFIG2, _BOR4V_BOR40V & _WRT_OFF
                      00011  
                      00012 
                      00013 ;                               VARIABLES
                      00014 ;****************************************************************************
                      00015 GPR_VAR     UDATA
0000                  00016 RECIBIDO   RES 1
0001                  00017 NIBBLE_H    RES 1
0002                  00018 NIBBLE_L    RES 1
0003                  00019 BANDERAS    RES 1
0004                  00020 W_TEMP      RES 1
0005                  00021 VAR_STATUS  RES 1
0006                  00022 TIEMPO_1    RES 1
0007                  00023 TIEMPO_2    RES 1
0008                  00024 ENVIAR      RES 1
0009                  00025 DISPLAY_1   RES 1
000A                  00026 DISPLAY_2   RES 1
000B                  00027 DISPLAY_3   RES 1
000C                  00028 DISPLAY_4   RES 1
000D                  00029 EJE         RES 1
000E                  00030 ENVIAR_Y    RES 1           
                      00031    
                      00032    
                      00033             
                      00034 ;                               INTERRUPCIONES
                      00035 ;*******************************************************************************
                      00036  
                      00037 RES_VECT  CODE    0x0000            ; processor reset vector
0000   2???           00038     GOTO    START                   ; go to beginning of program
                      00039 
                      00040 ISR_VECT    CODE    0x0004
                      00041 
0004                  00042 PUSH:
MPASM 5.77                     PROYECTO2.ASM   10-24-2020  11:38:39         PAGE  2


LOC  OBJECT CODE     LINE SOURCE TEXT
  VALUE

0004   138B           00043     BCF     INTCON, GIE
0005   00??           00044     MOVWF   W_TEMP
0006   0E03           00045     SWAPF   STATUS, W
0007   00??           00046     MOVWF   VAR_STATUS
                      00047 
0008                  00048 ISR:
0008   190B           00049     BTFSC   INTCON, T0IF
0009   2???           00050     CALL    FUE_TMR0
000A   188C           00051     BTFSC   PIR1, TMR2IF
000B   2???           00052     CALL    FUE_TMR2
000C   1B0C           00053     BTFSC   PIR1, ADIF
000D   2???           00054     CALL    COSO_ADC
000E   1A8C           00055     BTFSC   PIR1, RCIF
000F   2???           00056     CALL    COSO_RX
                      00057     
0010                  00058 POP:
0010   0E??           00059     SWAPF   VAR_STATUS, W
0011   0083           00060     MOVWF   STATUS
0012   0E??           00061     SWAPF   W_TEMP, F
0013   0E??           00062     SWAPF   W_TEMP, W
0014   0009           00063     RETFIE
                      00064 
                      00065 ;                   SUB-RUTINAS DE LA INTERRUPCION 
                      00066 ;*******************************************************************************
                      00067 
0015                  00068 FUE_TMR2:
0015   1A0C           00069     BTFSC   PIR1, TXIF
0016   2???           00070     CALL    COSO_TX
0017   108C           00071     BCF     PIR1, TMR2IF
                      00072     ;BSF            PORTD, RD2
0018   0008           00073     RETURN
                      00074    
0019                  00075 FUE_TMR0:
0019   30F8           00076     MOVLW   .248
001A   0081           00077     MOVWF   TMR0
001B   2???           00078     CALL    DISPLAYS
001C   110B           00079     BCF     INTCON, T0IF 
                      00080     ;BSF            PORTD, RD3
001D   0008           00081     RETURN
                      00082 
001E                  00083 COSO_ADC:
001E   1800           00084    BTFSC    EJE, 0
001F   2???           00085    GOTO     EJE_Y
Warning[207]: Found label after column 1. (EJE_X)
0020                  00086    EJE_X
0020   3083           00087    MOVLW    B'10000011'
0021   009F           00088    MOVWF    ADCON0
0022   081E           00089    MOVFW    ADRESH
0023   00??           00090    MOVWF    ENVIAR          ;VALOR DE ADRESH A VARIABLE ENVIAR
0024   1400           00091    BSF      EJE, 0
0025   2???           00092    GOTO     TERMINAR
                      00093    
Warning[207]: Found label after column 1. (EJE_Y)
MPASM 5.77                     PROYECTO2.ASM   10-24-2020  11:38:39         PAGE  3


LOC  OBJECT CODE     LINE SOURCE TEXT
  VALUE

0026                  00094    EJE_Y
0026   3087           00095    MOVLW    B'10000111'
0027   009F           00096    MOVWF    ADCON0 
0028   081E           00097    MOVFW    ADRESH
0029   00??           00098    MOVWF    ENVIAR_Y
002A   1000           00099    BCF      EJE, 0
                      00100    
Warning[207]: Found label after column 1. (TERMINAR)
002B                  00101    TERMINAR
002B   149F           00102    BSF      ADCON0, 1
002C   130C           00103    BCF      PIR1, ADIF      ;BANDERA TERMINAR CONVERSION
002D   0008           00104    RETURN
                      00105    
002E                  00106 COSO_TX:
002E   08??           00107     MOVFW   ENVIAR
002F   0099           00108     MOVWF   TXREG
0030   08??           00109     MOVFW   ENVIAR
0031   0088           00110     MOVWF   PORTD
                      00111     ;BSF            PORTD, RD1
0032   0008           00112     RETURN
                      00113     
0033                  00114 COSO_RX:
0033   081A           00115     MOVFW   RCREG
0034   00??           00116     MOVWF   RECIBIDO
                      00117     ;BSF            PORTD, RD4
0035   0008           00118     RETURN
                      00119 ;                               TABLA
                      00120 ;******************************************************************************* 
                      00121 
0036                  00122 TABLA
                      00123 ;   87654321
                      00124 ;   .BAFGCDE
0036   390F           00125     ANDLW   B'00001111'         ; 0-F
Message[305]: Using default destination of 1 (file).
0037   0782           00126     ADDWF   PCL
                      00127     
0038   3488           00128     RETLW   B'10001000'         ; 0     ABCDEF
0039   34BB           00129     RETLW   B'10111011'         ; 1     BC
003A   3494           00130     RETLW   B'10010100'         ; 2     ABGED
003B   3491           00131     RETLW   B'10010001'         ; 3     ABCDG
003C   34A3           00132     RETLW   B'10100011'         ; 4     BCFG
003D   34C1           00133     RETLW   B'11000001'         ; 5     ACDFG
003E   34C0           00134     RETLW   B'11000000'         ; 6     ACDEFG
003F   349B           00135     RETLW   B'10011011'         ; 7     ABC
0040   3480           00136     RETLW   B'10000000'         ; 8     ABCDEFG
0041   3481           00137     RETLW   B'10000001'         ; 9     ABCDFG
0042   3482           00138     RETLW   B'10000010'         ; A     ABCEFG
0043   34E0           00139     RETLW   B'11100000'         ; b     CDEFG
0044   34CC           00140     RETLW   B'11001100'         ; C     ADEF
0045   34B0           00141     RETLW   B'10110000'         ; d     BCDEG
0046   34C4           00142     RETLW   B'11000100'         ; E     ADEFG
0047   34C6           00143     RETLW   B'11000110'         ; F     AEFG
0048   0008           00144     RETURN
MPASM 5.77                     PROYECTO2.ASM   10-24-2020  11:38:39         PAGE  4


LOC  OBJECT CODE     LINE SOURCE TEXT
  VALUE

                      00145     
                      00146 ;                           PRINCIPAL 
                      00147 ;****************************************************************************
                      00148 MAIN_PROG   CODE
                      00149 
0000                  00150 START
0000   2???           00151    CALL     CONFIG_IO
0001   2???           00152    CALL     CONFIG_TMR              ; 2 mS
0002   2???           00153    CALL     CONFIG_INTERRUPT
0003   2???           00154    CALL     CONFIG_OSC
0004   2???           00155    CALL     CONFIG_ADC
0005   2???           00156    CALL     CONFIG_SERIAL
0006   2???           00157    GOTO     LOOP
                      00158    
0007                  00159 LOOP:
0007   2???           00160     CALL    DELAY_1
0008   149F           00161     BSF     ADCON0, GO
                      00162     ;SEPARAR NIBBLES
0009   08??           00163     MOVFW   RECIBIDO
000A   00??           00164     MOVWF   DISPLAY_2
000B   0E??           00165     SWAPF   RECIBIDO, W
000C   00??           00166     MOVWF   DISPLAY_1
000D   2???           00167     GOTO    LOOP
                      00168    
                      00169 ;*******************************************************************************
000E                  00170 DISPLAYS:
000E   1800           00171     BTFSC   BANDERAS, 0
000F   2???           00172     GOTO    DISPLAY1
0010   1880           00173     BTFSC   BANDERAS, 1
0011   2???           00174     GOTO    DISPLAY2
0012                  00175 DISPLAY1
0012   0189           00176     CLRF    PORTE
0013   08??           00177     MOVFW   DISPLAY_1
0014   2???           00178     CALL    TABLA
0015   0086           00179     MOVWF   PORTB
0016   1409           00180     BSF     PORTE, RE0
0017   01??           00181     CLRF    BANDERAS
0018   1480           00182     BSF     BANDERAS, 1
0019   0008           00183     RETURN
                      00184 
001A                  00185 DISPLAY2
001A   0189           00186     CLRF    PORTE
001B   08??           00187     MOVFW   DISPLAY_2
001C   2???           00188     CALL    TABLA
001D   0086           00189     MOVWF   PORTB
001E   1489           00190     BSF     PORTE, RE1
001F   01??           00191     CLRF    BANDERAS
0020   1400           00192     BSF     BANDERAS, 0
0021   0008           00193     RETURN
                      00194     
                      00195     
                      00196 
                      00197 
MPASM 5.77                     PROYECTO2.ASM   10-24-2020  11:38:39         PAGE  5


LOC  OBJECT CODE     LINE SOURCE TEXT
  VALUE

                      00198 ;                               CONFIGURACIONES
                      00199 ;*******************************************************************************
                      00200    
0022                  00201 CONFIG_IO
0022   1683 1703      00202    BANKSEL  ANSEL
Message[302]: Register in operand not in bank 0.  Ensure that bank bits are correct.
0024   0188           00203    CLRF     ANSEL
Message[302]: Register in operand not in bank 0.  Ensure that bank bits are correct.
0025   1408           00204    BSF      ANSEL, 0
0026   1683 1303      00205    BANKSEL  TRISA
Message[302]: Register in operand not in bank 0.  Ensure that bank bits are correct.
0028   0185           00206    CLRF     TRISA
Message[305]: Using default destination of 1 (file).
Message[302]: Register in operand not in bank 0.  Ensure that bank bits are correct.
0029   0985           00207    COMF     TRISA
Message[302]: Register in operand not in bank 0.  Ensure that bank bits are correct.
002A   0186           00208    CLRF     TRISB
Message[302]: Register in operand not in bank 0.  Ensure that bank bits are correct.
002B   0188           00209    CLRF     TRISD
Message[302]: Register in operand not in bank 0.  Ensure that bank bits are correct.
002C   0189           00210    CLRF     TRISE
002D   1283 1303      00211    BANKSEL  PORTD
002F   0185           00212    CLRF     PORTA
0030   0186           00213    CLRF     PORTB
0031   0189           00214    CLRF     PORTE
0032   0188           00215    CLRF     PORTD
                      00216    
0033   01??           00217    CLRF     EJE
0034   0008           00218    RETURN
                      00219    
0035                  00220 CONFIG_OSC 
0035   1683 1303      00221    BANKSEL  OSCCON
0037   3061           00222    MOVLW    B'01100001'
Message[302]: Register in operand not in bank 0.  Ensure that bank bits are correct.
0038   080F           00223    MOVFW    OSCCON
0039   0008           00224    RETURN
                      00225    
003A                  00226 CONFIG_ADC:
003A   1683 1303      00227    BANKSEL  ADCON1
Message[302]: Register in operand not in bank 0.  Ensure that bank bits are correct.
003C   019F           00228    CLRF     ADCON1
003D   1283 1303      00229    BANKSEL  ADCON0
003F   3083           00230    MOVLW    B'10000011'
0040   009F           00231    MOVWF    ADCON0
0041   0008           00232    RETURN
                      00233    
                      00234 
0042                  00235 CONFIG_TMR                          ; 2 mS PARA DISPLAYS
0042   1683 1303      00236     BANKSEL OPTION_REG
0044   0064           00237     CLRWDT
0045   30D7           00238     MOVLW   b'11010111'
Message[302]: Register in operand not in bank 0.  Ensure that bank bits are correct.
0046   0081           00239     MOVWF   OPTION_REG                      ; 1 SEGUNDO PARA LEDS
MPASM 5.77                     PROYECTO2.ASM   10-24-2020  11:38:39         PAGE  6


LOC  OBJECT CODE     LINE SOURCE TEXT
  VALUE

0047   1283 1303      00240     BANKSEL PORTA
0049   30FF           00241     MOVLW   .255
004A   0092           00242     MOVWF   T2CON
004B   0008           00243     RETURN
                      00244 
                      00245     
004C                  00246 CONFIG_INTERRUPT:
004C   1683 1303      00247     BANKSEL TRISA
Message[302]: Register in operand not in bank 0.  Ensure that bank bits are correct.
004E   170C           00248     BSF     PIE1, ADIE
Message[302]: Register in operand not in bank 0.  Ensure that bank bits are correct.
004F   140C           00249     BSF     PIE1, TMR1IE
Message[302]: Register in operand not in bank 0.  Ensure that bank bits are correct.
0050   148C           00250     BSF     PIE1, TMR2IE
Message[302]: Register in operand not in bank 0.  Ensure that bank bits are correct.
0051   168C           00251     BSF     PIE1, RCIE
                      00252     ;BSF            PIE1, TXIE
0052   168B           00253     BSF     INTCON, T0IE
0053   170B           00254     BSF     INTCON, PEIE
                      00255     
0054   3014           00256     MOVLW   .20
Message[302]: Register in operand not in bank 0.  Ensure that bank bits are correct.
0055   0092           00257     MOVWF   PR2
                      00258     
0056   1283 1303      00259     BANKSEL PORTA
0058   178B           00260     BSF     INTCON, GIE
0059   110B           00261     BCF     INTCON, T0IF
005A   0008           00262     RETURN
                      00263     
005B                  00264 CONFIG_SERIAL
005B   1683 1303      00265     BANKSEL TXSTA
Message[302]: Register in operand not in bank 0.  Ensure that bank bits are correct.
005D   1218           00266     BCF     TXSTA, SYNC
Message[302]: Register in operand not in bank 0.  Ensure that bank bits are correct.
005E   1518           00267     BSF     TXSTA, BRGH
005F   1683 1703      00268     BANKSEL BAUDCTL
Message[302]: Register in operand not in bank 0.  Ensure that bank bits are correct.
0061   1587           00269     BSF     BAUDCTL, BRG16
0062   1683 1303      00270     BANKSEL SPBRG
0064   3019           00271     MOVLW   .25
Message[302]: Register in operand not in bank 0.  Ensure that bank bits are correct.
0065   0099           00272     MOVWF   SPBRG
Message[302]: Register in operand not in bank 0.  Ensure that bank bits are correct.
0066   019A           00273     CLRF    SPBRGH
0067   1283 1303      00274     BANKSEL RCSTA
0069   1798           00275     BSF     RCSTA, SPEN
006A   1318           00276     BCF     RCSTA, RX9
006B   1618           00277     BSF     RCSTA, CREN
006C   1683 1303      00278     BANKSEL TXSTA
Message[302]: Register in operand not in bank 0.  Ensure that bank bits are correct.
006E   1698           00279     BSF     TXSTA, TXEN
006F   1283 1303      00280     BANKSEL PORTA
0071   0008           00281     RETURN
MPASM 5.77                     PROYECTO2.ASM   10-24-2020  11:38:39         PAGE  7


LOC  OBJECT CODE     LINE SOURCE TEXT
  VALUE

                      00282     
Warning[207]: Found label after column 1. (CONFIG_SERIALSSS)
0072                  00283     CONFIG_SERIALSSS
0072   1683 1303      00284     BANKSEL TXSTA
Message[302]: Register in operand not in bank 0.  Ensure that bank bits are correct.
0074   1218           00285     BCF     TXSTA, SYNC     ; PARA LOGRAR UN BAUD DE 300 CON UN FOSC DE 4MHz
Message[302]: Register in operand not in bank 0.  Ensure that bank bits are correct.
0075   1518           00286     BSF     TXSTA, BRGH     ; PARA LOGRAR UN BAUD DE 300 CON UN FOSC DE 4MHz
                      00287 
0076   1683 1703      00288     BANKSEL ANSEL
Message[302]: Register in operand not in bank 0.  Ensure that bank bits are correct.
0078   1587           00289     BSF     BAUDCTL, BRG16  ; PARA LOGRAR UN BAUD DE 300 CON UN FOSC DE 4MHz
                      00290     
0079   1683 1303      00291     BANKSEL TRISA
007B   3040           00292     MOVLW   0x40
Message[302]: Register in operand not in bank 0.  Ensure that bank bits are correct.
007C   0099           00293     MOVWF   SPBRG           ; PARA LOGRAR UN BAUD DE 300 CON UN FOSC DE 4MHz
007D   3003           00294     MOVLW   0x03
Message[302]: Register in operand not in bank 0.  Ensure that bank bits are correct.
007E   009A           00295     MOVWF   SPBRGH
                      00296 
007F   0008           00297     RETURN
                      00298     
Warning[207]: Found label after column 1. (DELAY_1)
0080                  00299     DELAY_1
0080   30FA           00300     MOVLW   .250
0081   00??           00301     MOVWF   TIEMPO_1
Warning[207]: Found label after column 1. (CONFIG1)
0082                  00302     CONFIG1:
0082   2???           00303     CALL    DELAY_2
0083   0B??           00304     DECFSZ  TIEMPO_1, F
0084   2???           00305     GOTO    CONFIG1
0085   0008           00306     RETURN
                      00307 
Warning[207]: Found label after column 1. (DELAY_2)
0086                  00308     DELAY_2
0086   30FA           00309     MOVLW   .250
0087   00??           00310     MOVWF    TIEMPO_2
Warning[207]: Found label after column 1. (CONFIG2)
0088                  00311     CONFIG2:
0088   0B??           00312     DECFSZ  TIEMPO_2, F
0089   2???           00313     GOTO    CONFIG2
008A   0008           00314     RETURN
                      00315 
Warning[205]: Found directive in column 1. (END)
20D4 3FFF             00316 END
MPASM 5.77                     PROYECTO2.ASM   10-24-2020  11:38:39         PAGE  8


SYMBOL TABLE
  LABEL                             VALUE 

ABDEN                             00000000
ABDOVF                            00000007
ACKDT                             00000005
ACKEN                             00000004
ACKSTAT                           00000006
ADCON0                            0000001F
ADCON1                            0000009F
ADCS0                             00000006
ADCS1                             00000007
ADDEN                             00000003
ADFM                              00000007
ADIE                              00000006
ADIF                              00000006
ADON                              00000000
ADRESH                            0000001E
ADRESL                            0000009E
ANS0                              00000000
ANS1                              00000001
ANS10                             00000002
ANS11                             00000003
ANS12                             00000004
ANS13                             00000005
ANS2                              00000002
ANS3                              00000003
ANS4                              00000004
ANS5                              00000005
ANS6                              00000006
ANS7                              00000007
ANS8                              00000000
ANS9                              00000001
ANSEL                             00000188
ANSELH                            00000189
BANDERAS                          00000003
BAUDCTL                           00000187
BCLIE                             00000003
BCLIF                             00000003
BF                                00000000
BRG0                              00000000
BRG1                              00000001
BRG10                             00000002
BRG11                             00000003
BRG12                             00000004
BRG13                             00000005
BRG14                             00000006
BRG15                             00000007
BRG16                             00000003
BRG2                              00000002
BRG3                              00000003
BRG4                              00000004
BRG5                              00000005
BRG6                              00000006
BRG7                              00000007
BRG8                              00000000
MPASM 5.77                     PROYECTO2.ASM   10-24-2020  11:38:39         PAGE  9


SYMBOL TABLE
  LABEL                             VALUE 

BRG9                              00000001
BRGH                              00000002
C                                 00000000
C1CH0                             00000000
C1CH1                             00000001
C1IE                              00000005
C1IF                              00000005
C1OE                              00000005
C1ON                              00000007
C1OUT                             00000006
C1POL                             00000004
C1R                               00000002
C1RSEL                            00000005
C1SEN                             00000005
C2CH0                             00000000
C2CH1                             00000001
C2IE                              00000006
C2IF                              00000006
C2OE                              00000005
C2ON                              00000007
C2OUT                             00000006
C2POL                             00000004
C2R                               00000002
C2REN                             00000004
C2RSEL                            00000004
C2SYNC                            00000000
CCP1CON                           00000017
CCP1IE                            00000002
CCP1IF                            00000002
CCP1M0                            00000000
CCP1M1                            00000001
CCP1M2                            00000002
CCP1M3                            00000003
CCP1X                             00000005
CCP1Y                             00000004
CCP2CON                           0000001D
CCP2IE                            00000000
CCP2IF                            00000000
CCP2M0                            00000000
CCP2M1                            00000001
CCP2M2                            00000002
CCP2M3                            00000003
CCP2X                             00000005
CCP2Y                             00000004
CCPR1                             00000015
CCPR1H                            00000016
CCPR1L                            00000015
CCPR2                             0000001B
CCPR2H                            0000001C
CCPR2L                            0000001B
CHS0                              00000002
CHS1                              00000003
CHS2                              00000004
MPASM 5.77                     PROYECTO2.ASM   10-24-2020  11:38:39         PAGE 10


SYMBOL TABLE
  LABEL                             VALUE 

CHS3                              00000005
CKE                               00000006
CKP                               00000004
CM1CON0                           00000107
CM2CON0                           00000108
CM2CON1                           00000109
CONFIG1                           00000082
CONFIG2                           00000088
CONFIG_ADC                        0000003A
CONFIG_INTERRUPT                  0000004C
CONFIG_IO                         00000022
CONFIG_OSC                        00000035
CONFIG_SERIAL                     0000005B
CONFIG_SERIALSSS                  00000072
CONFIG_TMR                        00000042
COSO_ADC                          0000001E
COSO_RX                           00000033
COSO_TX                           0000002E
CREN                              00000004
CSRC                              00000007
D                                 00000005
DATA_ADDRESS                      00000005
DC                                00000001
DC1B0                             00000004
DC1B1                             00000005
DC2B0                             00000004
DC2B1                             00000005
DELAY_1                           00000080
DELAY_2                           00000086
DISPLAY1                          00000012
DISPLAY2                          0000001A
DISPLAYS                          0000000E
DISPLAY_1                         00000009
DISPLAY_2                         0000000A
DISPLAY_3                         0000000B
DISPLAY_4                         0000000C
D_A                               00000005
D_NOT_A                           00000005
ECCPAS                            0000009C
ECCPAS0                           00000004
ECCPAS1                           00000005
ECCPAS2                           00000006
ECCPASE                           00000007
EEADR                             0000010D
EEADRH                            0000010F
EECON1                            0000018C
EECON2                            0000018D
EEDAT                             0000010C
EEDATA                            0000010C
EEDATH                            0000010E
EEIE                              00000004
EEIF                              00000004
EEPGD                             00000007
MPASM 5.77                     PROYECTO2.ASM   10-24-2020  11:38:39         PAGE 11


SYMBOL TABLE
  LABEL                             VALUE 

EJE                               0000000D
EJE_X                             00000020
EJE_Y                             00000026
ENVIAR                            00000008
ENVIAR_Y                          0000000E
F                                 00000001
FERR                              00000002
FSR                               00000004
FUE_TMR0                          00000019
FUE_TMR2                          00000015
FVREN                             00000000
GCEN                              00000007
GIE                               00000007
GO                                00000001
GO_DONE                           00000001
GO_NOT_DONE                       00000001
HTS                               00000002
I2C_DATA                          00000005
I2C_READ                          00000002
I2C_START                         00000003
I2C_STOP                          00000004
INDF                              00000000
INTCON                            0000000B
INTE                              00000004
INTEDG                            00000006
INTF                              00000001
IOCB                              00000096
IOCB0                             00000000
IOCB1                             00000001
IOCB2                             00000002
IOCB3                             00000003
IOCB4                             00000004
IOCB5                             00000005
IOCB6                             00000006
IOCB7                             00000007
IRCF0                             00000004
IRCF1                             00000005
IRCF2                             00000006
IRP                               00000007
ISR                               00000008
LOOP                              00000007
LTS                               00000001
MC1OUT                            00000007
MC2OUT                            00000006
MSK                               00000093
MSK0                              00000000
MSK1                              00000001
MSK2                              00000002
MSK3                              00000003
MSK4                              00000004
MSK5                              00000005
MSK6                              00000006
MSK7                              00000007
MPASM 5.77                     PROYECTO2.ASM   10-24-2020  11:38:39         PAGE 12


SYMBOL TABLE
  LABEL                             VALUE 

NIBBLE_H                          00000001
NIBBLE_L                          00000002
NOT_A                             00000005
NOT_ADDRESS                       00000005
NOT_BO                            00000000
NOT_BOR                           00000000
NOT_DONE                          00000001
NOT_PD                            00000003
NOT_POR                           00000001
NOT_RBPU                          00000007
NOT_RC8                           00000006
NOT_T1SYNC                        00000002
NOT_TO                            00000004
NOT_TX8                           00000006
NOT_W                             00000002
NOT_WRITE                         00000002
OERR                              00000001
OPTION_REG                        00000081
OSCCON                            0000008F
OSCTUNE                           00000090
OSFIE                             00000007
OSFIF                             00000007
OSTS                              00000003
P                                 00000004
P1M0                              00000006
P1M1                              00000007
PCL                               00000002
PCLATH                            0000000A
PCON                              0000008E
PDC0                              00000000
PDC1                              00000001
PDC2                              00000002
PDC3                              00000003
PDC4                              00000004
PDC5                              00000005
PDC6                              00000006
PEIE                              00000006
PEN                               00000002
PIE1                              0000008C
PIE2                              0000008D
PIR1                              0000000C
PIR2                              0000000D
POP                               00000010
PORTA                             00000005
PORTB                             00000006
PORTC                             00000007
PORTD                             00000008
PORTE                             00000009
PR2                               00000092
PRSEN                             00000007
PS0                               00000000
PS1                               00000001
PS2                               00000002
MPASM 5.77                     PROYECTO2.ASM   10-24-2020  11:38:39         PAGE 13


SYMBOL TABLE
  LABEL                             VALUE 

PSA                               00000003
PSSAC0                            00000002
PSSAC1                            00000003
PSSBD0                            00000000
PSSBD1                            00000001
PSTRCON                           0000009D
PULSR                             00000002
PULSS                             00000003
PUSH                              00000004
PWM1CON                           0000009B
R                                 00000002
RA0                               00000000
RA1                               00000001
RA2                               00000002
RA3                               00000003
RA4                               00000004
RA5                               00000005
RA6                               00000006
RA7                               00000007
RB0                               00000000
RB1                               00000001
RB2                               00000002
RB3                               00000003
RB4                               00000004
RB5                               00000005
RB6                               00000006
RB7                               00000007
RBIE                              00000003
RBIF                              00000000
RC0                               00000000
RC1                               00000001
RC2                               00000002
RC3                               00000003
RC4                               00000004
RC5                               00000005
RC6                               00000006
RC7                               00000007
RC8_9                             00000006
RC9                               00000006
RCD8                              00000000
RCEN                              00000003
RCIDL                             00000006
RCIE                              00000005
RCIF                              00000005
RCREG                             0000001A
RCSTA                             00000018
RD                                00000000
RD0                               00000000
RD1                               00000001
RD2                               00000002
RD3                               00000003
RD4                               00000004
RD5                               00000005
MPASM 5.77                     PROYECTO2.ASM   10-24-2020  11:38:39         PAGE 14


SYMBOL TABLE
  LABEL                             VALUE 

RD6                               00000006
RD7                               00000007
RE0                               00000000
RE1                               00000001
RE2                               00000002
RE3                               00000003
READ_WRITE                        00000002
RECIBIDO                          00000000
RP0                               00000005
RP1                               00000006
RSEN                              00000001
RX9                               00000006
RX9D                              00000000
R_NOT_W                           00000002
R_W                               00000002
S                                 00000003
SBOREN                            00000004
SCKP                              00000004
SCS                               00000000
SEN                               00000000
SENDB                             00000003
SMP                               00000007
SPBRG                             00000099
SPBRGH                            0000009A
SPEN                              00000007
SR0                               00000006
SR1                               00000007
SRCON                             00000185
SREN                              00000005
SSPADD                            00000093
SSPBUF                            00000013
SSPCON                            00000014
SSPCON2                           00000091
SSPEN                             00000005
SSPIE                             00000003
SSPIF                             00000003
SSPM0                             00000000
SSPM1                             00000001
SSPM2                             00000002
SSPM3                             00000003
SSPMSK                            00000093
SSPOV                             00000006
SSPSTAT                           00000094
START                             00000000
STATUS                            00000003
STRA                              00000000
STRB                              00000001
STRC                              00000002
STRD                              00000003
STRSYNC                           00000004
SWDTEN                            00000000
SYNC                              00000004
T0CS                              00000005
MPASM 5.77                     PROYECTO2.ASM   10-24-2020  11:38:39         PAGE 15


SYMBOL TABLE
  LABEL                             VALUE 

T0IE                              00000005
T0IF                              00000002
T0SE                              00000004
T1CKPS0                           00000004
T1CKPS1                           00000005
T1CON                             00000010
T1GINV                            00000007
T1GIV                             00000007
T1GSS                             00000001
T1INSYNC                          00000002
T1OSCEN                           00000003
T1SYNC                            00000002
T2CKPS0                           00000000
T2CKPS1                           00000001
T2CON                             00000012
TABLA                             00000036
TERMINAR                          0000002B
TIEMPO_1                          00000006
TIEMPO_2                          00000007
TMR0                              00000001
TMR0IE                            00000005
TMR0IF                            00000002
TMR1                              0000000E
TMR1CS                            00000001
TMR1GE                            00000006
TMR1H                             0000000F
TMR1IE                            00000000
TMR1IF                            00000000
TMR1L                             0000000E
TMR1ON                            00000000
TMR2                              00000011
TMR2IE                            00000001
TMR2IF                            00000001
TMR2ON                            00000002
TOUTPS0                           00000003
TOUTPS1                           00000004
TOUTPS2                           00000005
TOUTPS3                           00000006
TRISA                             00000085
TRISA0                            00000000
TRISA1                            00000001
TRISA2                            00000002
TRISA3                            00000003
TRISA4                            00000004
TRISA5                            00000005
TRISA6                            00000006
TRISA7                            00000007
TRISB                             00000086
TRISB0                            00000000
TRISB1                            00000001
TRISB2                            00000002
TRISB3                            00000003
TRISB4                            00000004
MPASM 5.77                     PROYECTO2.ASM   10-24-2020  11:38:39         PAGE 16


SYMBOL TABLE
  LABEL                             VALUE 

TRISB5                            00000005
TRISB6                            00000006
TRISB7                            00000007
TRISC                             00000087
TRISC0                            00000000
TRISC1                            00000001
TRISC2                            00000002
TRISC3                            00000003
TRISC4                            00000004
TRISC5                            00000005
TRISC6                            00000006
TRISC7                            00000007
TRISD                             00000088
TRISD0                            00000000
TRISD1                            00000001
TRISD2                            00000002
TRISD3                            00000003
TRISD4                            00000004
TRISD5                            00000005
TRISD6                            00000006
TRISD7                            00000007
TRISE                             00000089
TRISE0                            00000000
TRISE1                            00000001
TRISE2                            00000002
TRISE3                            00000003
TRMT                              00000001
TUN0                              00000000
TUN1                              00000001
TUN2                              00000002
TUN3                              00000003
TUN4                              00000004
TX8_9                             00000006
TX9                               00000006
TX9D                              00000000
TXD8                              00000000
TXEN                              00000005
TXIE                              00000004
TXIF                              00000004
TXREG                             00000019
TXSTA                             00000098
UA                                00000001
ULPWUE                            00000005
ULPWUIE                           00000002
ULPWUIF                           00000002
VAR_STATUS                        00000005
VCFG0                             00000004
VCFG1                             00000005
VR0                               00000000
VR1                               00000001
VR2                               00000002
VR3                               00000003
VRCON                             00000097
MPASM 5.77                     PROYECTO2.ASM   10-24-2020  11:38:39         PAGE 17


SYMBOL TABLE
  LABEL                             VALUE 

VREN                              00000007
VROE                              00000006
VRR                               00000005
VRSS                              00000004
W                                 00000000
WCOL                              00000007
WDTCON                            00000105
WDTPS0                            00000001
WDTPS1                            00000002
WDTPS2                            00000003
WDTPS3                            00000004
WPUB                              00000095
WPUB0                             00000000
WPUB1                             00000001
WPUB2                             00000002
WPUB3                             00000003
WPUB4                             00000004
WPUB5                             00000005
WPUB6                             00000006
WPUB7                             00000007
WR                                00000001
WREN                              00000002
WRERR                             00000003
WUE                               00000001
W_TEMP                            00000004
Z                                 00000002
_BOR21V                           00003EFF
_BOR40V                           00003FFF
_BOR4V_BOR21V                     00003EFF
_BOR4V_BOR40V                     00003FFF
_BOREN_NSLEEP                     00003EFF
_BOREN_OFF                        00003CFF
_BOREN_ON                         00003FFF
_BOREN_SBODEN                     00003DFF
_BOR_NSLEEP                       00003EFF
_BOR_OFF                          00003CFF
_BOR_ON                           00003FFF
_BOR_SBODEN                       00003DFF
_CONFIG1                          00002007
_CONFIG2                          00002008
_CPD_OFF                          00003FFF
_CPD_ON                           00003F7F
_CP_OFF                           00003FFF
_CP_ON                            00003FBF
_DEBUG_OFF                        00003FFF
_DEBUG_ON                         00001FFF
_DEVID1                           00002006
_EC_OSC                           00003FFB
_EXTRC                            00003FFF
_EXTRCIO                          00003FFE
_EXTRC_OSC_CLKOUT                 00003FFF
_EXTRC_OSC_NOCLKOUT               00003FFE
_FCMEN_OFF                        000037FF
MPASM 5.77                     PROYECTO2.ASM   10-24-2020  11:38:39         PAGE 18


SYMBOL TABLE
  LABEL                             VALUE 

_FCMEN_ON                         00003FFF
_FOSC_EC                          00003FFB
_FOSC_EXTRC_CLKOUT                00003FFF
_FOSC_EXTRC_NOCLKOUT              00003FFE
_FOSC_HS                          00003FFA
_FOSC_INTRC_CLKOUT                00003FFD
_FOSC_INTRC_NOCLKOUT              00003FFC
_FOSC_LP                          00003FF8
_FOSC_XT                          00003FF9
_HS_OSC                           00003FFA
_IDLOC0                           00002000
_IDLOC1                           00002001
_IDLOC2                           00002002
_IDLOC3                           00002003
_IESO_OFF                         00003BFF
_IESO_ON                          00003FFF
_INTOSC                           00003FFD
_INTOSCIO                         00003FFC
_INTRC_OSC_CLKOUT                 00003FFD
_INTRC_OSC_NOCLKOUT               00003FFC
_LP_OSC                           00003FF8
_LVP_OFF                          00002FFF
_LVP_ON                           00003FFF
_MCLRE_OFF                        00003FDF
_MCLRE_ON                         00003FFF
_PWRTE_OFF                        00003FFF
_PWRTE_ON                         00003FEF
_WDTE_OFF                         00003FF7
_WDTE_ON                          00003FFF
_WDT_OFF                          00003FF7
_WDT_ON                           00003FFF
_WRT_1FOURTH                      00003BFF
_WRT_256                          00003DFF
_WRT_HALF                         000039FF
_WRT_OFF                          00003FFF
_XT_OSC                           00003FF9
__16F887                          00000001
__DEBUG                           
__MPLAB_DEBUGGER_SIMULATOR        1

Errors   :     0
Warnings :     9 reported,     0 suppressed
Messages :    28 reported,     0 suppressed

