MPLINK 5.08, LINKER
Linker Map File - Created Sat Oct 24 11:38:41 2020

                                 Section Info
                  Section       Type    Address   Location Size(Bytes)
                ---------  ---------  ---------  ---------  ---------
                 RES_VECT       code   0x000000    program   0x000002
                   .cinit    romdata   0x000001    program   0x000004
                 ISR_VECT       code   0x000004    program   0x00008a
                MAIN_PROG       code   0x000049    program   0x000116
.config_2007_BUILD/DEFAULT/DEBUG/PROYECTO2.O       code   0x002007    program   0x000002
.config_2008_BUILD/DEFAULT/DEBUG/PROYECTO2.O       code   0x002008    program   0x000002
                  GPR_VAR      udata   0x000020       data   0x00000f



                              Program Memory Usage 
                               Start         End      
                           ---------   ---------      
                            0x000000    0x000002      
                            0x000004    0x0000d3      
                            0x002007    0x002008      
            213 out of 8455 program addresses used, program memory utilization is 2%



                              Symbols - Sorted by Name
                     Name    Address   Location    Storage File                     
                ---------  ---------  ---------  --------- ---------                
                  CONFIG1   0x0000cb    program     static C:\Users\servi\MPLABXProjects\proyecto_2.X\proyecto2.asm
                  CONFIG2   0x0000d1    program     static C:\Users\servi\MPLABXProjects\proyecto_2.X\proyecto2.asm
               CONFIG_ADC   0x000083    program     static C:\Users\servi\MPLABXProjects\proyecto_2.X\proyecto2.asm
         CONFIG_INTERRUPT   0x000095    program     static C:\Users\servi\MPLABXProjects\proyecto_2.X\proyecto2.asm
                CONFIG_IO   0x00006b    program     static C:\Users\servi\MPLABXProjects\proyecto_2.X\proyecto2.asm
               CONFIG_OSC   0x00007e    program     static C:\Users\servi\MPLABXProjects\proyecto_2.X\proyecto2.asm
            CONFIG_SERIAL   0x0000a4    program     static C:\Users\servi\MPLABXProjects\proyecto_2.X\proyecto2.asm
         CONFIG_SERIALSSS   0x0000bb    program     static C:\Users\servi\MPLABXProjects\proyecto_2.X\proyecto2.asm
               CONFIG_TMR   0x00008b    program     static C:\Users\servi\MPLABXProjects\proyecto_2.X\proyecto2.asm
                 COSO_ADC   0x00001e    program     static C:\Users\servi\MPLABXProjects\proyecto_2.X\proyecto2.asm
                  COSO_RX   0x000033    program     static C:\Users\servi\MPLABXProjects\proyecto_2.X\proyecto2.asm
                  COSO_TX   0x00002e    program     static C:\Users\servi\MPLABXProjects\proyecto_2.X\proyecto2.asm
                  DELAY_1   0x0000c9    program     static C:\Users\servi\MPLABXProjects\proyecto_2.X\proyecto2.asm
                  DELAY_2   0x0000cf    program     static C:\Users\servi\MPLABXProjects\proyecto_2.X\proyecto2.asm
                 DISPLAY1   0x00005b    program     static C:\Users\servi\MPLABXProjects\proyecto_2.X\proyecto2.asm
                 DISPLAY2   0x000063    program     static C:\Users\servi\MPLABXProjects\proyecto_2.X\proyecto2.asm
                 DISPLAYS   0x000057    program     static C:\Users\servi\MPLABXProjects\proyecto_2.X\proyecto2.asm
                    EJE_X   0x000020    program     static C:\Users\servi\MPLABXProjects\proyecto_2.X\proyecto2.asm
                    EJE_Y   0x000026    program     static C:\Users\servi\MPLABXProjects\proyecto_2.X\proyecto2.asm
                 FUE_TMR0   0x000019    program     static C:\Users\servi\MPLABXProjects\proyecto_2.X\proyecto2.asm
                 FUE_TMR2   0x000015    program     static C:\Users\servi\MPLABXProjects\proyecto_2.X\proyecto2.asm
                      ISR   0x000008    program     static C:\Users\servi\MPLABXProjects\proyecto_2.X\proyecto2.asm
                     LOOP   0x000050    program     static C:\Users\servi\MPLABXProjects\proyecto_2.X\proyecto2.asm
                      POP   0x000010    program     static C:\Users\servi\MPLABXProjects\proyecto_2.X\proyecto2.asm
                     PUSH   0x000004    program     static C:\Users\servi\MPLABXProjects\proyecto_2.X\proyecto2.asm
                    START   0x000049    program     static C:\Users\servi\MPLABXProjects\proyecto_2.X\proyecto2.asm
                    TABLA   0x000036    program     static C:\Users\servi\MPLABXProjects\proyecto_2.X\proyecto2.asm
                 TERMINAR   0x00002b    program     static C:\Users\servi\MPLABXProjects\proyecto_2.X\proyecto2.asm
                 BANDERAS   0x000023       data     static C:\Users\servi\MPLABXProjects\proyecto_2.X\proyecto2.asm
                DISPLAY_1   0x000029       data     static C:\Users\servi\MPLABXProjects\proyecto_2.X\proyecto2.asm
                DISPLAY_2   0x00002a       data     static C:\Users\servi\MPLABXProjects\proyecto_2.X\proyecto2.asm
                DISPLAY_3   0x00002b       data     static C:\Users\servi\MPLABXProjects\proyecto_2.X\proyecto2.asm
                DISPLAY_4   0x00002c       data     static C:\Users\servi\MPLABXProjects\proyecto_2.X\proyecto2.asm
                      EJE   0x00002d       data     static C:\Users\servi\MPLABXProjects\proyecto_2.X\proyecto2.asm
                   ENVIAR   0x000028       data     static C:\Users\servi\MPLABXProjects\proyecto_2.X\proyecto2.asm
                 ENVIAR_Y   0x00002e       data     static C:\Users\servi\MPLABXProjects\proyecto_2.X\proyecto2.asm
                 NIBBLE_H   0x000021       data     static C:\Users\servi\MPLABXProjects\proyecto_2.X\proyecto2.asm
                 NIBBLE_L   0x000022       data     static C:\Users\servi\MPLABXProjects\proyecto_2.X\proyecto2.asm
                 RECIBIDO   0x000020       data     static C:\Users\servi\MPLABXProjects\proyecto_2.X\proyecto2.asm
                 TIEMPO_1   0x000026       data     static C:\Users\servi\MPLABXProjects\proyecto_2.X\proyecto2.asm
                 TIEMPO_2   0x000027       data     static C:\Users\servi\MPLABXProjects\proyecto_2.X\proyecto2.asm
               VAR_STATUS   0x000025       data     static C:\Users\servi\MPLABXProjects\proyecto_2.X\proyecto2.asm
                   W_TEMP   0x000024       data     static C:\Users\servi\MPLABXProjects\proyecto_2.X\proyecto2.asm



                              Symbols - Sorted by Address
                     Name    Address   Location    Storage File                     
                ---------  ---------  ---------  --------- ---------                
                     PUSH   0x000004    program     static C:\Users\servi\MPLABXProjects\proyecto_2.X\proyecto2.asm
                      ISR   0x000008    program     static C:\Users\servi\MPLABXProjects\proyecto_2.X\proyecto2.asm
                      POP   0x000010    program     static C:\Users\servi\MPLABXProjects\proyecto_2.X\proyecto2.asm
                 FUE_TMR2   0x000015    program     static C:\Users\servi\MPLABXProjects\proyecto_2.X\proyecto2.asm
                 FUE_TMR0   0x000019    program     static C:\Users\servi\MPLABXProjects\proyecto_2.X\proyecto2.asm
                 COSO_ADC   0x00001e    program     static C:\Users\servi\MPLABXProjects\proyecto_2.X\proyecto2.asm
                    EJE_X   0x000020    program     static C:\Users\servi\MPLABXProjects\proyecto_2.X\proyecto2.asm
                    EJE_Y   0x000026    program     static C:\Users\servi\MPLABXProjects\proyecto_2.X\proyecto2.asm
                 TERMINAR   0x00002b    program     static C:\Users\servi\MPLABXProjects\proyecto_2.X\proyecto2.asm
                  COSO_TX   0x00002e    program     static C:\Users\servi\MPLABXProjects\proyecto_2.X\proyecto2.asm
                  COSO_RX   0x000033    program     static C:\Users\servi\MPLABXProjects\proyecto_2.X\proyecto2.asm
                    TABLA   0x000036    program     static C:\Users\servi\MPLABXProjects\proyecto_2.X\proyecto2.asm
                    START   0x000049    program     static C:\Users\servi\MPLABXProjects\proyecto_2.X\proyecto2.asm
                     LOOP   0x000050    program     static C:\Users\servi\MPLABXProjects\proyecto_2.X\proyecto2.asm
                 DISPLAYS   0x000057    program     static C:\Users\servi\MPLABXProjects\proyecto_2.X\proyecto2.asm
                 DISPLAY1   0x00005b    program     static C:\Users\servi\MPLABXProjects\proyecto_2.X\proyecto2.asm
                 DISPLAY2   0x000063    program     static C:\Users\servi\MPLABXProjects\proyecto_2.X\proyecto2.asm
                CONFIG_IO   0x00006b    program     static C:\Users\servi\MPLABXProjects\proyecto_2.X\proyecto2.asm
               CONFIG_OSC   0x00007e    program     static C:\Users\servi\MPLABXProjects\proyecto_2.X\proyecto2.asm
               CONFIG_ADC   0x000083    program     static C:\Users\servi\MPLABXProjects\proyecto_2.X\proyecto2.asm
               CONFIG_TMR   0x00008b    program     static C:\Users\servi\MPLABXProjects\proyecto_2.X\proyecto2.asm
         CONFIG_INTERRUPT   0x000095    program     static C:\Users\servi\MPLABXProjects\proyecto_2.X\proyecto2.asm
            CONFIG_SERIAL   0x0000a4    program     static C:\Users\servi\MPLABXProjects\proyecto_2.X\proyecto2.asm
         CONFIG_SERIALSSS   0x0000bb    program     static C:\Users\servi\MPLABXProjects\proyecto_2.X\proyecto2.asm
                  DELAY_1   0x0000c9    program     static C:\Users\servi\MPLABXProjects\proyecto_2.X\proyecto2.asm
                  CONFIG1   0x0000cb    program     static C:\Users\servi\MPLABXProjects\proyecto_2.X\proyecto2.asm
                  DELAY_2   0x0000cf    program     static C:\Users\servi\MPLABXProjects\proyecto_2.X\proyecto2.asm
                  CONFIG2   0x0000d1    program     static C:\Users\servi\MPLABXProjects\proyecto_2.X\proyecto2.asm
                 RECIBIDO   0x000020       data     static C:\Users\servi\MPLABXProjects\proyecto_2.X\proyecto2.asm
                 NIBBLE_H   0x000021       data     static C:\Users\servi\MPLABXProjects\proyecto_2.X\proyecto2.asm
                 NIBBLE_L   0x000022       data     static C:\Users\servi\MPLABXProjects\proyecto_2.X\proyecto2.asm
                 BANDERAS   0x000023       data     static C:\Users\servi\MPLABXProjects\proyecto_2.X\proyecto2.asm
                   W_TEMP   0x000024       data     static C:\Users\servi\MPLABXProjects\proyecto_2.X\proyecto2.asm
               VAR_STATUS   0x000025       data     static C:\Users\servi\MPLABXProjects\proyecto_2.X\proyecto2.asm
                 TIEMPO_1   0x000026       data     static C:\Users\servi\MPLABXProjects\proyecto_2.X\proyecto2.asm
                 TIEMPO_2   0x000027       data     static C:\Users\servi\MPLABXProjects\proyecto_2.X\proyecto2.asm
                   ENVIAR   0x000028       data     static C:\Users\servi\MPLABXProjects\proyecto_2.X\proyecto2.asm
                DISPLAY_1   0x000029       data     static C:\Users\servi\MPLABXProjects\proyecto_2.X\proyecto2.asm
                DISPLAY_2   0x00002a       data     static C:\Users\servi\MPLABXProjects\proyecto_2.X\proyecto2.asm
                DISPLAY_3   0x00002b       data     static C:\Users\servi\MPLABXProjects\proyecto_2.X\proyecto2.asm
                DISPLAY_4   0x00002c       data     static C:\Users\servi\MPLABXProjects\proyecto_2.X\proyecto2.asm
                      EJE   0x00002d       data     static C:\Users\servi\MPLABXProjects\proyecto_2.X\proyecto2.asm
                 ENVIAR_Y   0x00002e       data     static C:\Users\servi\MPLABXProjects\proyecto_2.X\proyecto2.asm


